target datalayout = "e-m:e-p270:32:32-p271:32:32-p272:64:64-i64:64-i128:128-f80:128-n8:16:32:64-S128"
target triple = "x86_64-pc-linux-gnu"

%struct._object = type { %union.anon, ptr }
%union.anon = type { i64 }
%struct.elementtreestate = type { ptr, ptr, ptr, ptr, ptr, ptr, ptr, ptr, ptr, ptr, ptr, ptr, ptr, ptr, ptr, ptr, ptr, ptr, ptr }
%struct.anon = type { i32, i32 }
%struct.XMLParserObject = type { %struct._object, ptr, ptr, ptr, ptr, ptr, ptr, ptr, ptr, ptr, ptr, ptr, ptr, ptr, ptr, ptr }

@_Py_NoneStruct = external global %struct._object, align 8

; Function Attrs: alwaysinline nounwind uwtable
define internal i32 @_Py_IsImmortal(ptr noundef %0) #4 {
  %2 = alloca ptr, align 8
  store ptr %0, ptr %2, align 8, !tbaa !3
  %3 = load ptr, ptr %2, align 8, !tbaa !3
  %4 = getelementptr inbounds nuw %struct._object, ptr %3, i32 0, i32 0
  %5 = getelementptr inbounds nuw %struct.anon, ptr %4, i32 0, i32 0
  %6 = load i32, ptr %5, align 8, !tbaa !32
  %7 = icmp slt i32 %6, 0
  %8 = zext i1 %7 to i32
  ret i32 %8
}

; Function Attrs: inlinehint nounwind uwtable
define internal ptr @_Py_TYPE(ptr noundef %0) #3 {
  %2 = alloca ptr, align 8
  store ptr %0, ptr %2, align 8, !tbaa !3
  %3 = load ptr, ptr %2, align 8, !tbaa !3
  %4 = getelementptr inbounds nuw %struct._object, ptr %3, i32 0, i32 1
  %5 = load ptr, ptr %4, align 8, !tbaa !52
  ret ptr %5
}

; Function Attrs: inlinehint nounwind uwtable
define internal void @Py_XDECREF(ptr noundef %0) #3 {
  %2 = alloca ptr, align 8
  store ptr %0, ptr %2, align 8, !tbaa !3
  %3 = load ptr, ptr %2, align 8, !tbaa !3
  %4 = icmp ne ptr %3, null
  br i1 %4, label %5, label %7

5:                                                ; preds = %1
  %6 = load ptr, ptr %2, align 8, !tbaa !3
  call void @Py_DECREF(ptr noundef %6)
  br label %7

7:                                                ; preds = %5, %1
  ret void
}

; Function Attrs: alwaysinline nounwind uwtable
define internal void @Py_DECREF(ptr noundef %0) #4 {
  %2 = alloca ptr, align 8
  store ptr %0, ptr %2, align 8, !tbaa !3
  %3 = load ptr, ptr %2, align 8, !tbaa !3
  %4 = call i32 @_Py_IsImmortal(ptr noundef %3)
  %5 = icmp ne i32 %4, 0
  br i1 %5, label %6, label %7

6:                                                ; preds = %1
  br label %16

7:                                                ; preds = %1
  %8 = load ptr, ptr %2, align 8, !tbaa !3
  %9 = getelementptr inbounds nuw %struct._object, ptr %8, i32 0, i32 0
  %10 = getelementptr inbounds nuw %struct.anon, ptr %9, i32 0, i32 0
  %11 = load i32, ptr %10, align 8, !tbaa !32
  %12 = add i32 %11, -1
  store i32 %12, ptr %10, align 8, !tbaa !32
  %13 = icmp eq i32 %12, 0
  br i1 %13, label %14, label %16

14:                                               ; preds = %7
  %15 = load ptr, ptr %2, align 8, !tbaa !3
  call void @_Py_Dealloc(ptr noundef %15)
  br label %16

16:                                               ; preds = %6, %14, %7
  ret void
}

; Function Attrs: inlinehint nounwind uwtable
define internal i32 @Py_IS_TYPE(ptr noundef %0, ptr noundef %1) #3 {
  %3 = alloca ptr, align 8
  %4 = alloca ptr, align 8
  store ptr %0, ptr %3, align 8, !tbaa !3
  store ptr %1, ptr %4, align 8, !tbaa !28
  %5 = load ptr, ptr %3, align 8, !tbaa !3
  %6 = call ptr @_Py_TYPE(ptr noundef %5)
  %7 = load ptr, ptr %4, align 8, !tbaa !28
  %8 = icmp eq ptr %6, %7
  %9 = zext i1 %8 to i32
  ret i32 %9
}

; Function Attrs: nounwind uwtable
define internal void @expat_end_handler(ptr noundef %0, ptr noundef %1) #0 {
  %3 = alloca ptr, align 8
  %4 = alloca ptr, align 8
  %5 = alloca ptr, align 8
  %6 = alloca ptr, align 8
  %7 = alloca i32, align 4
  %8 = alloca ptr, align 8
  store ptr %0, ptr %3, align 8, !tbaa !8
  store ptr %1, ptr %4, align 8, !tbaa !139
  call void @llvm.lifetime.start.p0(i64 8, ptr %5) #8
  call void @llvm.lifetime.start.p0(i64 8, ptr %6) #8
  store ptr null, ptr %6, align 8, !tbaa !3
  %9 = call ptr @PyErr_Occurred()
  %10 = icmp ne ptr %9, null
  br i1 %10, label %11, label %12

11:                                               ; preds = %2
  store i32 1, ptr %7, align 4
  br label %51

12:                                               ; preds = %2
  call void @llvm.lifetime.start.p0(i64 8, ptr %8) #8
  %13 = load ptr, ptr %3, align 8, !tbaa !8
  %14 = getelementptr inbounds nuw %struct.XMLParserObject, ptr %13, i32 0, i32 14
  %15 = load ptr, ptr %14, align 8, !tbaa !171
  store ptr %15, ptr %8, align 8, !tbaa !8
  %16 = load ptr, ptr %3, align 8, !tbaa !8
  %17 = getelementptr inbounds nuw %struct.XMLParserObject, ptr %16, i32 0, i32 2
  %18 = load ptr, ptr %17, align 8, !tbaa !168
  %19 = load ptr, ptr %8, align 8, !tbaa !8
  %20 = getelementptr inbounds nuw %struct.elementtreestate, ptr %19, i32 0, i32 15
  %21 = load ptr, ptr %20, align 8, !tbaa !21
  %22 = call i32 @Py_IS_TYPE(ptr noundef %18, ptr noundef %21)
  %23 = icmp ne i32 %22, 0
  br i1 %23, label %24, label %29

24:                                               ; preds = %12
  %25 = load ptr, ptr %3, align 8, !tbaa !8
  %26 = getelementptr inbounds nuw %struct.XMLParserObject, ptr %25, i32 0, i32 2
  %27 = load ptr, ptr %26, align 8, !tbaa !168
  %28 = call ptr @treebuilder_handle_end(ptr noundef %27, ptr noundef @_Py_NoneStruct)
  store ptr %28, ptr %6, align 8, !tbaa !3
  br label %49

29:                                               ; preds = %12
  %30 = load ptr, ptr %3, align 8, !tbaa !8
  %31 = getelementptr inbounds nuw %struct.XMLParserObject, ptr %30, i32 0, i32 9
  %32 = load ptr, ptr %31, align 8, !tbaa !162
  %33 = icmp ne ptr %32, null
  br i1 %33, label %34, label %48

34:                                               ; preds = %29
  %35 = load ptr, ptr %3, align 8, !tbaa !8
  %36 = load ptr, ptr %4, align 8, !tbaa !139
  %37 = call ptr @makeuniversal(ptr noundef %35, ptr noundef %36)
  store ptr %37, ptr %5, align 8, !tbaa !3
  %38 = load ptr, ptr %5, align 8, !tbaa !3
  %39 = icmp ne ptr %38, null
  br i1 %39, label %40, label %47

40:                                               ; preds = %34
  %41 = load ptr, ptr %3, align 8, !tbaa !8
  %42 = getelementptr inbounds nuw %struct.XMLParserObject, ptr %41, i32 0, i32 9
  %43 = load ptr, ptr %42, align 8, !tbaa !162
  %44 = load ptr, ptr %5, align 8, !tbaa !3
  %45 = call ptr @PyObject_CallOneArg(ptr noundef %43, ptr noundef %44)
  store ptr %45, ptr %6, align 8, !tbaa !3
  %46 = load ptr, ptr %5, align 8, !tbaa !3
  call void @Py_DECREF(ptr noundef %46)
  br label %47

47:                                               ; preds = %40, %34
  br label %48

48:                                               ; preds = %47, %29
  br label %49

49:                                               ; preds = %48, %24
  %50 = load ptr, ptr %6, align 8, !tbaa !3
  call void @Py_XDECREF(ptr noundef %50)
  call void @llvm.lifetime.end.p0(i64 8, ptr %8) #8
  store i32 0, ptr %7, align 4
  br label %51

51:                                               ; preds = %49, %11
  call void @llvm.lifetime.end.p0(i64 8, ptr %6) #8
  call void @llvm.lifetime.end.p0(i64 8, ptr %5) #8
  %52 = load i32, ptr %7, align 4
  switch i32 %52, label %54 [
    i32 0, label %53
    i32 1, label %53
  ]

53:                                               ; preds = %51, %51
  ret void

54:                                               ; preds = %51
  unreachable
}