; Function Attrs: nounwind uwtable
define internal void @expat_end_handler(ptr noundef readonly captures(none) %0, ptr noundef %1) #0 {
  %3 = tail call ptr @PyErr_Occurred() #12
  %.not = icmp eq ptr %3, null
  br i1 %.not, label %4, label %Py_XDECREF.exit

4:                                                ; preds = %2
  %5 = getelementptr inbounds nuw i8, ptr %0, i64 120
  %6 = load ptr, ptr %5, align 8, !tbaa !166
  %7 = getelementptr inbounds nuw i8, ptr %0, i64 24
  %8 = load ptr, ptr %7, align 8, !tbaa !162
  %9 = getelementptr inbounds nuw i8, ptr %6, i64 120
  %10 = load ptr, ptr %9, align 8, !tbaa !17
  %11 = getelementptr i8, ptr %8, i64 8
  %.val = load ptr, ptr %11, align 8, !tbaa !25
  %.not19 = icmp eq ptr %.val, %10
  br i1 %.not19, label %12, label %14

12:                                               ; preds = %4
  %13 = tail call fastcc ptr @treebuilder_handle_end(ptr noundef nonnull %8)
  br label %Py_DECREF.exit

14:                                               ; preds = %4
  %15 = getelementptr inbounds nuw i8, ptr %0, i64 80
  %16 = load ptr, ptr %15, align 8, !tbaa !156
  %.not14 = icmp eq ptr %16, null
  br i1 %.not14, label %Py_XDECREF.exit, label %17

17:                                               ; preds = %14
  %18 = tail call fastcc ptr @makeuniversal(ptr noundef nonnull %0, ptr noundef %1)
  %.not15 = icmp eq ptr %18, null
  br i1 %.not15, label %Py_XDECREF.exit, label %19

19:                                               ; preds = %17
  %20 = load ptr, ptr %15, align 8, !tbaa !156
  %21 = tail call ptr @PyObject_CallOneArg(ptr noundef %20, ptr noundef nonnull %18) #12
  %22 = load i32, ptr %18, align 8, !tbaa !21
  %.not.i = icmp sgt i32 %22, -1
  br i1 %.not.i, label %23, label %Py_DECREF.exit

23:                                               ; preds = %19
  %24 = add nsw i32 %22, -1
  store i32 %24, ptr %18, align 8, !tbaa !21
  %25 = icmp eq i32 %24, 0
  br i1 %25, label %26, label %Py_DECREF.exit

26:                                               ; preds = %23
  tail call void @_Py_Dealloc(ptr noundef nonnull %18) #12
  br label %Py_DECREF.exit

Py_DECREF.exit:                                   ; preds = %26, %23, %19, %12
  %.0 = phi ptr [ %13, %12 ], [ %21, %19 ], [ %21, %23 ], [ %21, %26 ]
  %.not.i16 = icmp eq ptr %.0, null
  br i1 %.not.i16, label %Py_XDECREF.exit, label %27

27:                                               ; preds = %Py_DECREF.exit
  %28 = load i32, ptr %.0, align 8, !tbaa !21
  %.not.i.i = icmp sgt i32 %28, -1
  br i1 %.not.i.i, label %29, label %Py_XDECREF.exit

29:                                               ; preds = %27
  %30 = add nsw i32 %28, -1
  store i32 %30, ptr %.0, align 8, !tbaa !21
  %31 = icmp eq i32 %30, 0
  br i1 %31, label %32, label %Py_XDECREF.exit

32:                                               ; preds = %29
  tail call void @_Py_Dealloc(ptr noundef nonnull %.0) #12
  br label %Py_XDECREF.exit

Py_XDECREF.exit:                                  ; preds = %14, %17, %32, %29, %27, %Py_DECREF.exit, %2
  ret void
}